target datalayout = "e-m:e-p270:32:32-p271:32:32-p272:64:64-i64:64-i128:128-f80:128-n8:16:32:64-S128"
target triple = "x86_64-pc-linux-gnu"

%struct._e_guid_t = type { i32, i16, i16, [8 x i8] }
%struct._dcerpc_info = type { ptr, i32, i64, i8, i32, i32, i32, i32, i32, i32, i32, i32, i32, i32, ptr, ptr, ptr }
%struct._packet_info = type { ptr, ptr, i32, i32, %struct.nstime_t, %struct.nstime_t, %struct.nstime_t, i32, ptr, ptr, ptr, ptr, %struct._address, %struct._address, %struct._address, %struct._address, %struct._address, %struct._address, i32, ptr, i32, %struct.anon, i32, i32, i32, i32, ptr, i32, ptr, ptr, i16, i16, i32, i32, i16, i32, i32, ptr, ptr, ptr, i8, i8, i16, i16, i16, i32, i16, i16, ptr, ptr, ptr, ptr, ptr, i32 }
%struct.nstime_t = type { i64, i32 }
%struct._address = type { i32, i32, ptr, ptr }
%struct.anon = type { i8, [3 x i8] }
%struct._dcerpc_call_value = type { %struct._e_guid_t, i16, %struct._e_guid_t, i16, i32, %struct.nstime_t, i32, i32, ptr, ptr, ptr, i32 }
%struct._frame_data = type { i32, i32, i32, i32, i64, ptr, ptr, ptr, i16, i16, %struct.nstime_t, %struct.nstime_t, i32, i32, i8 }

@hf_level = internal global i32 0, align 4
@hf_enumprinters_flags = internal global i32 0, align 4
@hf_offered = internal global i32 0, align 4
@hf_servername = internal global i32 0, align 4
@.str.160 = private unnamed_addr constant [12 x i8] c"Server name\00", align 1
@.str.435 = private unnamed_addr constant [7 x i8] c"Buffer\00", align 1
@ett_enumprinters_flags = internal global i32 0, align 4
@.str.1206 = private unnamed_addr constant [11 x i8] c", level %d\00", align 1

; Function Attrs: nounwind uwtable
define internal i32 @dissect_spoolss_buffer(ptr noundef %0, i32 noundef %1, ptr noundef %2, ptr noundef %3, ptr noundef %4, ptr noundef %5, ptr noundef %6) #0 {
  %8 = alloca ptr, align 8
  %9 = alloca i32, align 4
  %10 = alloca ptr, align 8
  %11 = alloca ptr, align 8
  %12 = alloca ptr, align 8
  %13 = alloca ptr, align 8
  %14 = alloca ptr, align 8
  store ptr %0, ptr %8, align 8
  store i32 %1, ptr %9, align 4
  store ptr %2, ptr %10, align 8
  store ptr %3, ptr %11, align 8
  store ptr %4, ptr %12, align 8
  store ptr %5, ptr %13, align 8
  store ptr %6, ptr %14, align 8
  %15 = load ptr, ptr %14, align 8
  %16 = icmp ne ptr %15, null
  br i1 %16, label %17, label %19

17:                                               ; preds = %7
  %18 = load ptr, ptr %14, align 8
  call void @llvm.memset.p0.i64(ptr align 8 %18, i8 0, i64 24, i1 false)
  br label %19

19:                                               ; preds = %17, %7
  %20 = load ptr, ptr %14, align 8
  %21 = load ptr, ptr %12, align 8
  %22 = getelementptr inbounds %struct._dcerpc_info, ptr %21, i32 0, i32 16
  store ptr %20, ptr %22, align 8
  %23 = load ptr, ptr %8, align 8
  %24 = load i32, ptr %9, align 4
  %25 = load ptr, ptr %10, align 8
  %26 = load ptr, ptr %11, align 8
  %27 = load ptr, ptr %12, align 8
  %28 = load ptr, ptr %13, align 8
  %29 = call i32 @dissect_ndr_pointer(ptr noundef %23, i32 noundef %24, ptr noundef %25, ptr noundef %26, ptr noundef %27, ptr noundef %28, ptr noundef @dissect_spoolss_buffer_data, i32 noundef 2, ptr noundef @.str.435, i32 noundef -1)
  store i32 %29, ptr %9, align 4
  %30 = load i32, ptr %9, align 4
  ret i32 %30
}

; Function Attrs: nounwind uwtable
define internal i32 @SpoolssEnumPrinters_q(ptr noundef %0, i32 noundef %1, ptr noundef %2, ptr noundef %3, ptr noundef %4, ptr noundef %5) #0 {
  %7 = alloca ptr, align 8
  %8 = alloca i32, align 4
  %9 = alloca ptr, align 8
  %10 = alloca ptr, align 8
  %11 = alloca ptr, align 8
  %12 = alloca ptr, align 8
  %13 = alloca i32, align 4
  %14 = alloca i32, align 4
  %15 = alloca ptr, align 8
  store ptr %0, ptr %7, align 8
  store i32 %1, ptr %8, align 4
  store ptr %2, ptr %9, align 8
  store ptr %3, ptr %10, align 8
  store ptr %4, ptr %11, align 8
  store ptr %5, ptr %12, align 8
  %16 = load ptr, ptr %11, align 8
  %17 = getelementptr inbounds %struct._dcerpc_info, ptr %16, i32 0, i32 14
  %18 = load ptr, ptr %17, align 8
  store ptr %18, ptr %15, align 8
  %19 = load ptr, ptr %7, align 8
  %20 = load i32, ptr %8, align 4
  %21 = load ptr, ptr %9, align 8
  %22 = load ptr, ptr %11, align 8
  %23 = load ptr, ptr %12, align 8
  %24 = call i32 @dissect_ndr_uint32(ptr noundef %19, i32 noundef %20, ptr noundef %21, ptr noundef null, ptr noundef %22, ptr noundef %23, i32 noundef -1, ptr noundef %14)
  store i32 %24, ptr %8, align 4
  %25 = load ptr, ptr %10, align 8
  %26 = load ptr, ptr %7, align 8
  %27 = load i32, ptr %8, align 4
  %28 = sub i32 %27, 4
  %29 = load i32, ptr @hf_enumprinters_flags, align 4
  %30 = load i32, ptr @ett_enumprinters_flags, align 4
  %31 = load i32, ptr %14, align 4
  %32 = zext i32 %31 to i64
  %33 = call ptr @proto_tree_add_bitmask_value(ptr noundef %25, ptr noundef %26, i32 noundef %28, i32 noundef %29, i32 noundef %30, ptr noundef @SpoolssEnumPrinters_q.hf_flags, i64 noundef %32)
  %34 = load ptr, ptr %7, align 8
  %35 = load i32, ptr %8, align 4
  %36 = load ptr, ptr %9, align 8
  %37 = load ptr, ptr %10, align 8
  %38 = load ptr, ptr %11, align 8
  %39 = load ptr, ptr %12, align 8
  %40 = load i32, ptr @hf_servername, align 4
  %41 = call i32 @dissect_ndr_str_pointer_item(ptr noundef %34, i32 noundef %35, ptr noundef %36, ptr noundef %37, ptr noundef %38, ptr noundef %39, i32 noundef 2, ptr noundef @.str.160, i32 noundef %40, i32 noundef 0)
  store i32 %41, ptr %8, align 4
  %42 = load ptr, ptr %7, align 8
  %43 = load i32, ptr %8, align 4
  %44 = load ptr, ptr %9, align 8
  %45 = load ptr, ptr %10, align 8
  %46 = load ptr, ptr %11, align 8
  %47 = load ptr, ptr %12, align 8
  %48 = load i32, ptr @hf_level, align 4
  %49 = call i32 @dissect_ndr_uint32(ptr noundef %42, i32 noundef %43, ptr noundef %44, ptr noundef %45, ptr noundef %46, ptr noundef %47, i32 noundef %48, ptr noundef %13)
  store i32 %49, ptr %8, align 4
  %50 = load ptr, ptr %9, align 8
  %51 = getelementptr inbounds %struct._packet_info, ptr %50, i32 0, i32 8
  %52 = load ptr, ptr %51, align 8
  %53 = getelementptr inbounds %struct._frame_data, ptr %52, i32 0, i32 9
  %54 = load i16, ptr %53, align 2
  %55 = lshr i16 %54, 3
  %56 = and i16 %55, 1
  %57 = zext i16 %56 to i32
  %58 = icmp ne i32 %57, 0
  br i1 %58, label %65, label %59

59:                                               ; preds = %6
  %60 = load i32, ptr %13, align 4
  %61 = sext i32 %60 to i64
  %62 = inttoptr i64 %61 to ptr
  %63 = load ptr, ptr %15, align 8
  %64 = getelementptr inbounds %struct._dcerpc_call_value, ptr %63, i32 0, i32 8
  store ptr %62, ptr %64, align 8
  br label %65

65:                                               ; preds = %59, %6
  %66 = load ptr, ptr %9, align 8
  %67 = getelementptr inbounds %struct._packet_info, ptr %66, i32 0, i32 1
  %68 = load ptr, ptr %67, align 8
  %69 = load i32, ptr %13, align 4
  call void (ptr, i32, ptr, ...) @col_append_fstr(ptr noundef %68, i32 noundef 25, ptr noundef @.str.1206, i32 noundef %69)
  %70 = load ptr, ptr %7, align 8
  %71 = load i32, ptr %8, align 4
  %72 = load ptr, ptr %9, align 8
  %73 = load ptr, ptr %10, align 8
  %74 = load ptr, ptr %11, align 8
  %75 = load ptr, ptr %12, align 8
  %76 = call i32 @dissect_spoolss_buffer(ptr noundef %70, i32 noundef %71, ptr noundef %72, ptr noundef %73, ptr noundef %74, ptr noundef %75, ptr noundef null)
  store i32 %76, ptr %8, align 4
  %77 = load ptr, ptr %7, align 8
  %78 = load i32, ptr %8, align 4
  %79 = load ptr, ptr %9, align 8
  %80 = load ptr, ptr %10, align 8
  %81 = load ptr, ptr %11, align 8
  %82 = load ptr, ptr %12, align 8
  %83 = load i32, ptr @hf_offered, align 4
  %84 = call i32 @dissect_ndr_uint32(ptr noundef %77, i32 noundef %78, ptr noundef %79, ptr noundef %80, ptr noundef %81, ptr noundef %82, i32 noundef %83, ptr noundef null)
  store i32 %84, ptr %8, align 4
  %85 = load i32, ptr %8, align 4
  ret i32 %85
}