; Function Attrs: nounwind uwtable
define internal i32 @SpoolssEnumPrinters_q(ptr noundef %0, i32 noundef %1, ptr noundef %2, ptr noundef %3, ptr noundef %4, ptr noundef %5) #0 {
  %7 = alloca i32, align 4
  %8 = alloca i32, align 4
  %9 = getelementptr inbounds nuw i8, ptr %4, i64 72
  %10 = load ptr, ptr %9, align 8
  %11 = call i32 @dissect_ndr_uint32(ptr noundef %0, i32 noundef %1, ptr noundef %2, ptr noundef null, ptr noundef %4, ptr noundef %5, i32 noundef -1, ptr noundef nonnull %8) #5
  %12 = add i32 %11, -4
  %13 = load i32, ptr @hf_enumprinters_flags, align 4
  %14 = load i32, ptr @ett_enumprinters_flags, align 4
  %15 = load i32, ptr %8, align 4
  %16 = zext i32 %15 to i64
  %17 = call ptr @proto_tree_add_bitmask_value(ptr noundef %3, ptr noundef %0, i32 noundef %12, i32 noundef %13, i32 noundef %14, ptr noundef nonnull @SpoolssEnumPrinters_q.hf_flags, i64 noundef %16) #5
  %18 = load i32, ptr @hf_servername, align 4
  %19 = call i32 @dissect_ndr_str_pointer_item(ptr noundef %0, i32 noundef %11, ptr noundef %2, ptr noundef %3, ptr noundef %4, ptr noundef %5, i32 noundef 2, ptr noundef nonnull @.str.160, i32 noundef %18, i32 noundef 0) #5
  %20 = load i32, ptr @hf_level, align 4
  %21 = call i32 @dissect_ndr_uint32(ptr noundef %0, i32 noundef %19, ptr noundef %2, ptr noundef %3, ptr noundef %4, ptr noundef %5, i32 noundef %20, ptr noundef nonnull %7) #5
  %22 = getelementptr inbounds nuw i8, ptr %2, i64 80
  %23 = load ptr, ptr %22, align 8
  %24 = getelementptr inbounds nuw i8, ptr %23, i64 50
  %25 = load i16, ptr %24, align 2
  %26 = and i16 %25, 8
  %.not = icmp eq i16 %26, 0
  %.pre = load i32, ptr %7, align 4
  br i1 %.not, label %27, label %31

27:                                               ; preds = %6
  %28 = sext i32 %.pre to i64
  %29 = inttoptr i64 %28 to ptr
  %30 = getelementptr inbounds nuw i8, ptr %10, i64 72
  store ptr %29, ptr %30, align 8
  br label %31

31:                                               ; preds = %27, %6
  %32 = getelementptr inbounds nuw i8, ptr %2, i64 8
  %33 = load ptr, ptr %32, align 8
  call void (ptr, i32, ptr, ...) @col_append_fstr(ptr noundef %33, i32 noundef 25, ptr noundef nonnull @.str.1206, i32 noundef %.pre) #5
  %34 = getelementptr inbounds nuw i8, ptr %4, i64 88
  store ptr null, ptr %34, align 8
  %35 = call i32 @dissect_ndr_pointer(ptr noundef %0, i32 noundef %21, ptr noundef nonnull %2, ptr noundef %3, ptr noundef nonnull %4, ptr noundef %5, ptr noundef nonnull @dissect_spoolss_buffer_data, i32 noundef 2, ptr noundef nonnull @.str.435, i32 noundef -1) #5
  %36 = load i32, ptr @hf_offered, align 4
  %37 = call i32 @dissect_ndr_uint32(ptr noundef %0, i32 noundef %35, ptr noundef nonnull %2, ptr noundef %3, ptr noundef nonnull %4, ptr noundef %5, i32 noundef %36, ptr noundef null) #5
  ret i32 %37
}